target datalayout = "e-m:e-p270:32:32-p271:32:32-p272:64:64-i64:64-i128:128-f80:128-n8:16:32:64-S128"
target triple = "x86_64-pc-linux-gnu"

%struct.darktable_t = type { %struct.dt_codepath_t, i32, i32, ptr, ptr, ptr, ptr, ptr, ptr, ptr, ptr, ptr, ptr, ptr, ptr, ptr, ptr, ptr, ptr, ptr, ptr, ptr, ptr, ptr, ptr, ptr, ptr, ptr, ptr, ptr, [64 x %struct.dt_pthread_mutex_t], %struct.dt_pthread_mutex_t, %struct.dt_pthread_mutex_t, %struct.dt_pthread_mutex_t, %struct.dt_pthread_mutex_t, %struct.dt_pthread_mutex_t, ptr, ptr, ptr, ptr, ptr, ptr, ptr, ptr, ptr, ptr, ptr, ptr, ptr, %struct.dt_lua_state_t, ptr, double, ptr, i32, [47 x i32], i32, i32, ptr, ptr, %struct.dt_sys_resources_t, %struct.dt_backthumb_t, %struct.dt_gimp_t }
%struct.dt_codepath_t = type { i8, [3 x i8] }
%struct.dt_pthread_mutex_t = type { %union.pthread_mutex_t }
%union.pthread_mutex_t = type { %struct.__pthread_mutex_s }
%struct.__pthread_mutex_s = type { i32, i32, i32, i32, i32, i16, i16, %struct.__pthread_internal_list }
%struct.__pthread_internal_list = type { ptr, ptr }
%struct.dt_lua_state_t = type { i32 }
%struct.dt_sys_resources_t = type { i64, i64, ptr, ptr, i32 }
%struct.dt_backthumb_t = type { double, double, i32, i32, i32, i32 }
%struct.dt_gimp_t = type { i32, ptr, ptr, i32, i32 }
%struct.dt_lib_module_t = type { %struct.dt_action_t, ptr, ptr, ptr, ptr, ptr, ptr, ptr, ptr, ptr, ptr, ptr, ptr, ptr, ptr, ptr, ptr, ptr, ptr, ptr, ptr, ptr, ptr, ptr, ptr, ptr, ptr, ptr, ptr, ptr, ptr, [128 x i8], ptr, ptr, i32, ptr, ptr, ptr, i32 }
%struct.dt_action_t = type { i32, ptr, ptr, ptr, ptr, ptr }
%struct.dt_lib_module_info_t = type { ptr, i32, ptr, i32, ptr }

@darktable = external global %struct.darktable_t, align 8
@.str.2 = private unnamed_addr constant [41 x i8] c"[sql] %s:%d, function %s(): prepare \22%s\22\00", align 1
@.str.3 = private unnamed_addr constant [112 x i8] c"generated/home/dtcxzyw/WorkSpace/Projects/compilers/llvm-opt-benchmark/bench/darktable/darktable/src/libs/lib.c\00", align 1
@stderr = external global ptr, align 8
@.str.5 = private unnamed_addr constant [53 x i8] c"sqlite3 error: %s:%d, function %s(), query \22%s\22: %s\0A\00", align 1
@.str.6 = private unnamed_addr constant [41 x i8] c"sqlite3 error: %s:%d, function %s(): %s\0A\00", align 1
@.str.73 = private unnamed_addr constant [11 x i8] c"new preset\00", align 1
@__FUNCTION__.menuitem_new_preset = private unnamed_addr constant [20 x i8] c"menuitem_new_preset\00", align 1

; Function Attrs: nounwind uwtable
define internal void @menuitem_new_preset(ptr noundef %0, ptr noundef %1) #0 {
  %3 = alloca ptr, align 8
  %4 = alloca ptr, align 8
  %5 = alloca ptr, align 8
  %6 = alloca i32, align 4
  %7 = alloca i32, align 4
  %8 = alloca i32, align 4
  %9 = alloca i32, align 4
  %10 = alloca i32, align 4
  store ptr %0, ptr %3, align 8, !tbaa !222
  store ptr %1, ptr %4, align 8, !tbaa !66
  %11 = call ptr @dcgettext(ptr noundef null, ptr noundef @.str.73, i32 noundef 5) #12
  %12 = load ptr, ptr %4, align 8, !tbaa !66
  %13 = getelementptr inbounds nuw %struct.dt_lib_module_info_t, ptr %12, i32 0, i32 0
  %14 = load ptr, ptr %13, align 8, !tbaa !73
  %15 = load ptr, ptr %4, align 8, !tbaa !66
  %16 = getelementptr inbounds nuw %struct.dt_lib_module_info_t, ptr %15, i32 0, i32 1
  %17 = load i32, ptr %16, align 8, !tbaa !75
  call void @dt_lib_presets_remove(ptr noundef %11, ptr noundef %14, i32 noundef %17)
  call void @llvm.lifetime.start.p0(i64 8, ptr %5) #12
  br label %18

18:                                               ; preds = %2
  br label %19

19:                                               ; preds = %18
  %20 = load i32, ptr getelementptr inbounds nuw (%struct.darktable_t, ptr @darktable, i32 0, i32 2), align 8, !tbaa !21
  %21 = and i32 256, %20
  %22 = icmp ne i32 %21, 0
  br i1 %22, label %23, label %29

23:                                               ; preds = %19
  %24 = load i32, ptr getelementptr inbounds nuw (%struct.darktable_t, ptr @darktable, i32 0, i32 2), align 8, !tbaa !21
  %25 = xor i32 %24, -1
  %26 = and i32 0, %25
  %27 = icmp ne i32 %26, 0
  br i1 %27, label %29, label %28

28:                                               ; preds = %23
  call void (ptr, ...) @dt_print_ext(ptr noundef @.str.2, ptr noundef @.str.3, i32 noundef 198, ptr noundef @__FUNCTION__.menuitem_new_preset, ptr noundef @.str.74)
  br label %29

29:                                               ; preds = %28, %23, %19
  br label %30

30:                                               ; preds = %29
  br label %31

31:                                               ; preds = %30
  call void @llvm.lifetime.start.p0(i64 4, ptr %6) #12
  %32 = load ptr, ptr getelementptr inbounds nuw (%struct.darktable_t, ptr @darktable, i32 0, i32 18), align 8, !tbaa !68
  %33 = call ptr @dt_database_get(ptr noundef %32)
  %34 = call i32 @sqlite3_prepare_v2(ptr noundef %33, ptr noundef @.str.74, i32 noundef -1, ptr noundef %5, ptr noundef null)
  store i32 %34, ptr %6, align 4, !tbaa !62
  %35 = load i32, ptr %6, align 4, !tbaa !62
  %36 = icmp ne i32 %35, 0
  br i1 %36, label %37, label %43

37:                                               ; preds = %31
  %38 = load ptr, ptr @stderr, align 8, !tbaa !69
  %39 = load ptr, ptr getelementptr inbounds nuw (%struct.darktable_t, ptr @darktable, i32 0, i32 18), align 8, !tbaa !68
  %40 = call ptr @dt_database_get(ptr noundef %39)
  %41 = call ptr @sqlite3_errmsg(ptr noundef %40)
  %42 = call i32 (ptr, ptr, ...) @fprintf(ptr noundef %38, ptr noundef @.str.5, ptr noundef @.str.3, i32 noundef 198, ptr noundef @__FUNCTION__.menuitem_new_preset, ptr noundef @.str.74, ptr noundef %41) #12
  br label %43

43:                                               ; preds = %37, %31
  call void @llvm.lifetime.end.p0(i64 4, ptr %6) #12
  br label %44

44:                                               ; preds = %43
  br label %45

45:                                               ; preds = %44
  call void @llvm.lifetime.start.p0(i64 4, ptr %7) #12
  %46 = load ptr, ptr %5, align 8, !tbaa !71
  %47 = call ptr @dcgettext(ptr noundef null, ptr noundef @.str.73, i32 noundef 5) #12
  %48 = call i32 @sqlite3_bind_text(ptr noundef %46, i32 noundef 1, ptr noundef %47, i32 noundef -1, ptr noundef null)
  store i32 %48, ptr %7, align 4, !tbaa !62
  %49 = load i32, ptr %7, align 4, !tbaa !62
  %50 = icmp ne i32 %49, 0
  br i1 %50, label %51, label %57

51:                                               ; preds = %45
  %52 = load ptr, ptr @stderr, align 8, !tbaa !69
  %53 = load ptr, ptr getelementptr inbounds nuw (%struct.darktable_t, ptr @darktable, i32 0, i32 18), align 8, !tbaa !68
  %54 = call ptr @dt_database_get(ptr noundef %53)
  %55 = call ptr @sqlite3_errmsg(ptr noundef %54)
  %56 = call i32 (ptr, ptr, ...) @fprintf(ptr noundef %52, ptr noundef @.str.6, ptr noundef @.str.3, i32 noundef 200, ptr noundef @__FUNCTION__.menuitem_new_preset, ptr noundef %55) #12
  br label %57

57:                                               ; preds = %51, %45
  call void @llvm.lifetime.end.p0(i64 4, ptr %7) #12
  call void @llvm.lifetime.start.p0(i64 4, ptr %8) #12
  %58 = load ptr, ptr %5, align 8, !tbaa !71
  %59 = load ptr, ptr %4, align 8, !tbaa !66
  %60 = getelementptr inbounds nuw %struct.dt_lib_module_info_t, ptr %59, i32 0, i32 0
  %61 = load ptr, ptr %60, align 8, !tbaa !73
  %62 = call i32 @sqlite3_bind_text(ptr noundef %58, i32 noundef 2, ptr noundef %61, i32 noundef -1, ptr noundef inttoptr (i64 -1 to ptr))
  store i32 %62, ptr %8, align 4, !tbaa !62
  %63 = load i32, ptr %8, align 4, !tbaa !62
  %64 = icmp ne i32 %63, 0
  br i1 %64, label %65, label %71

65:                                               ; preds = %57
  %66 = load ptr, ptr @stderr, align 8, !tbaa !69
  %67 = load ptr, ptr getelementptr inbounds nuw (%struct.darktable_t, ptr @darktable, i32 0, i32 18), align 8, !tbaa !68
  %68 = call ptr @dt_database_get(ptr noundef %67)
  %69 = call ptr @sqlite3_errmsg(ptr noundef %68)
  %70 = call i32 (ptr, ptr, ...) @fprintf(ptr noundef %66, ptr noundef @.str.6, ptr noundef @.str.3, i32 noundef 201, ptr noundef @__FUNCTION__.menuitem_new_preset, ptr noundef %69) #12
  br label %71

71:                                               ; preds = %65, %57
  call void @llvm.lifetime.end.p0(i64 4, ptr %8) #12
  call void @llvm.lifetime.start.p0(i64 4, ptr %9) #12
  %72 = load ptr, ptr %5, align 8, !tbaa !71
  %73 = load ptr, ptr %4, align 8, !tbaa !66
  %74 = getelementptr inbounds nuw %struct.dt_lib_module_info_t, ptr %73, i32 0, i32 1
  %75 = load i32, ptr %74, align 8, !tbaa !75
  %76 = call i32 @sqlite3_bind_int(ptr noundef %72, i32 noundef 3, i32 noundef %75)
  store i32 %76, ptr %9, align 4, !tbaa !62
  %77 = load i32, ptr %9, align 4, !tbaa !62
  %78 = icmp ne i32 %77, 0
  br i1 %78, label %79, label %85

79:                                               ; preds = %71
  %80 = load ptr, ptr @stderr, align 8, !tbaa !69
  %81 = load ptr, ptr getelementptr inbounds nuw (%struct.darktable_t, ptr @darktable, i32 0, i32 18), align 8, !tbaa !68
  %82 = call ptr @dt_database_get(ptr noundef %81)
  %83 = call ptr @sqlite3_errmsg(ptr noundef %82)
  %84 = call i32 (ptr, ptr, ...) @fprintf(ptr noundef %80, ptr noundef @.str.6, ptr noundef @.str.3, i32 noundef 202, ptr noundef @__FUNCTION__.menuitem_new_preset, ptr noundef %83) #12
  br label %85

85:                                               ; preds = %79, %71
  call void @llvm.lifetime.end.p0(i64 4, ptr %9) #12
  call void @llvm.lifetime.start.p0(i64 4, ptr %10) #12
  %86 = load ptr, ptr %5, align 8, !tbaa !71
  %87 = load ptr, ptr %4, align 8, !tbaa !66
  %88 = getelementptr inbounds nuw %struct.dt_lib_module_info_t, ptr %87, i32 0, i32 2
  %89 = load ptr, ptr %88, align 8, !tbaa !78
  %90 = load ptr, ptr %4, align 8, !tbaa !66
  %91 = getelementptr inbounds nuw %struct.dt_lib_module_info_t, ptr %90, i32 0, i32 3
  %92 = load i32, ptr %91, align 8, !tbaa !77
  %93 = call i32 @sqlite3_bind_blob(ptr noundef %86, i32 noundef 4, ptr noundef %89, i32 noundef %92, ptr noundef inttoptr (i64 -1 to ptr))
  store i32 %93, ptr %10, align 4, !tbaa !62
  %94 = load i32, ptr %10, align 4, !tbaa !62
  %95 = icmp ne i32 %94, 0
  br i1 %95, label %96, label %102

96:                                               ; preds = %85
  %97 = load ptr, ptr @stderr, align 8, !tbaa !69
  %98 = load ptr, ptr getelementptr inbounds nuw (%struct.darktable_t, ptr @darktable, i32 0, i32 18), align 8, !tbaa !68
  %99 = call ptr @dt_database_get(ptr noundef %98)
  %100 = call ptr @sqlite3_errmsg(ptr noundef %99)
  %101 = call i32 (ptr, ptr, ...) @fprintf(ptr noundef %97, ptr noundef @.str.6, ptr noundef @.str.3, i32 noundef 203, ptr noundef @__FUNCTION__.menuitem_new_preset, ptr noundef %100) #12
  br label %102

102:                                              ; preds = %96, %85
  call void @llvm.lifetime.end.p0(i64 4, ptr %10) #12
  %103 = load ptr, ptr %5, align 8, !tbaa !71
  %104 = call i32 @sqlite3_step(ptr noundef %103)
  %105 = load ptr, ptr %5, align 8, !tbaa !71
  %106 = call i32 @sqlite3_finalize(ptr noundef %105)
  %107 = load ptr, ptr %4, align 8, !tbaa !66
  %108 = getelementptr inbounds nuw %struct.dt_lib_module_info_t, ptr %107, i32 0, i32 4
  %109 = load ptr, ptr %108, align 8, !tbaa !122
  %110 = getelementptr inbounds nuw %struct.dt_lib_module_t, ptr %109, i32 0, i32 0
  %111 = call ptr @dcgettext(ptr noundef null, ptr noundef @.str.73, i32 noundef 5) #12
  call void @dt_action_define_preset(ptr noundef %110, ptr noundef %111)
  %112 = call ptr @dcgettext(ptr noundef null, ptr noundef @.str.73, i32 noundef 5) #12
  %113 = load ptr, ptr %4, align 8, !tbaa !66
  call void @edit_preset(ptr noundef %112, ptr noundef %113)
  call void @llvm.lifetime.end.p0(i64 8, ptr %5) #12
  ret void
}