; Function Attrs: nounwind uwtable
define internal void @menuitem_new_preset(ptr readnone captures(none) %0, ptr noundef readonly captures(none) %1) #0 {
  %3 = alloca ptr, align 8
  %4 = tail call ptr @dcgettext(ptr noundef null, ptr noundef nonnull @.str.73, i32 noundef 5) #19
  %5 = load ptr, ptr %1, align 8, !tbaa !65
  %6 = getelementptr inbounds nuw i8, ptr %1, i64 8
  %7 = load i32, ptr %6, align 8, !tbaa !68
  tail call void @dt_lib_presets_remove(ptr noundef %4, ptr noundef %5, i32 noundef %7)
  call void @llvm.lifetime.start.p0(i64 8, ptr nonnull %3) #19
  %8 = load i32, ptr getelementptr inbounds nuw (i8, ptr @darktable, i64 8), align 8, !tbaa !59
  %9 = and i32 %8, 256
  %.not = icmp eq i32 %9, 0
  br i1 %.not, label %11, label %10

10:                                               ; preds = %2
  tail call void (ptr, ...) @dt_print_ext(ptr noundef nonnull @.str.2, ptr noundef nonnull @.str.3, i32 noundef 198, ptr noundef nonnull @__FUNCTION__.menuitem_new_preset, ptr noundef nonnull @.str.74) #19
  br label %11

11:                                               ; preds = %10, %2
  %12 = load ptr, ptr getelementptr inbounds nuw (i8, ptr @darktable, i64 136), align 8, !tbaa !60
  %13 = tail call ptr @dt_database_get(ptr noundef %12) #19
  %14 = call i32 @sqlite3_prepare_v2(ptr noundef %13, ptr noundef nonnull @.str.74, i32 noundef -1, ptr noundef nonnull %3, ptr noundef null) #19
  %.not12 = icmp eq i32 %14, 0
  br i1 %.not12, label %21, label %15

15:                                               ; preds = %11
  %16 = load ptr, ptr @stderr, align 8, !tbaa !61
  %17 = load ptr, ptr getelementptr inbounds nuw (i8, ptr @darktable, i64 136), align 8, !tbaa !60
  %18 = call ptr @dt_database_get(ptr noundef %17) #19
  %19 = call ptr @sqlite3_errmsg(ptr noundef %18) #19
  %20 = call i32 (ptr, ptr, ...) @fprintf(ptr noundef %16, ptr noundef nonnull @.str.5, ptr noundef nonnull @.str.3, i32 noundef 198, ptr noundef nonnull @__FUNCTION__.menuitem_new_preset, ptr noundef nonnull @.str.74, ptr noundef %19) #20
  br label %21

21:                                               ; preds = %15, %11
  %22 = load ptr, ptr %3, align 8, !tbaa !63
  %23 = call ptr @dcgettext(ptr noundef null, ptr noundef nonnull @.str.73, i32 noundef 5) #19
  %24 = call i32 @sqlite3_bind_text(ptr noundef %22, i32 noundef 1, ptr noundef %23, i32 noundef -1, ptr noundef null) #19
  %.not13 = icmp eq i32 %24, 0
  br i1 %.not13, label %31, label %25

25:                                               ; preds = %21
  %26 = load ptr, ptr @stderr, align 8, !tbaa !61
  %27 = load ptr, ptr getelementptr inbounds nuw (i8, ptr @darktable, i64 136), align 8, !tbaa !60
  %28 = call ptr @dt_database_get(ptr noundef %27) #19
  %29 = call ptr @sqlite3_errmsg(ptr noundef %28) #19
  %30 = call i32 (ptr, ptr, ...) @fprintf(ptr noundef %26, ptr noundef nonnull @.str.6, ptr noundef nonnull @.str.3, i32 noundef 200, ptr noundef nonnull @__FUNCTION__.menuitem_new_preset, ptr noundef %29) #20
  br label %31

31:                                               ; preds = %25, %21
  %32 = load ptr, ptr %3, align 8, !tbaa !63
  %33 = load ptr, ptr %1, align 8, !tbaa !65
  %34 = call i32 @sqlite3_bind_text(ptr noundef %32, i32 noundef 2, ptr noundef %33, i32 noundef -1, ptr noundef nonnull inttoptr (i64 -1 to ptr)) #19
  %.not14 = icmp eq i32 %34, 0
  br i1 %.not14, label %41, label %35

35:                                               ; preds = %31
  %36 = load ptr, ptr @stderr, align 8, !tbaa !61
  %37 = load ptr, ptr getelementptr inbounds nuw (i8, ptr @darktable, i64 136), align 8, !tbaa !60
  %38 = call ptr @dt_database_get(ptr noundef %37) #19
  %39 = call ptr @sqlite3_errmsg(ptr noundef %38) #19
  %40 = call i32 (ptr, ptr, ...) @fprintf(ptr noundef %36, ptr noundef nonnull @.str.6, ptr noundef nonnull @.str.3, i32 noundef 201, ptr noundef nonnull @__FUNCTION__.menuitem_new_preset, ptr noundef %39) #20
  br label %41

41:                                               ; preds = %35, %31
  %42 = load ptr, ptr %3, align 8, !tbaa !63
  %43 = load i32, ptr %6, align 8, !tbaa !68
  %44 = call i32 @sqlite3_bind_int(ptr noundef %42, i32 noundef 3, i32 noundef %43) #19
  %.not15 = icmp eq i32 %44, 0
  br i1 %.not15, label %51, label %45

45:                                               ; preds = %41
  %46 = load ptr, ptr @stderr, align 8, !tbaa !61
  %47 = load ptr, ptr getelementptr inbounds nuw (i8, ptr @darktable, i64 136), align 8, !tbaa !60
  %48 = call ptr @dt_database_get(ptr noundef %47) #19
  %49 = call ptr @sqlite3_errmsg(ptr noundef %48) #19
  %50 = call i32 (ptr, ptr, ...) @fprintf(ptr noundef %46, ptr noundef nonnull @.str.6, ptr noundef nonnull @.str.3, i32 noundef 202, ptr noundef nonnull @__FUNCTION__.menuitem_new_preset, ptr noundef %49) #20
  br label %51

51:                                               ; preds = %45, %41
  %52 = load ptr, ptr %3, align 8, !tbaa !63
  %53 = getelementptr inbounds nuw i8, ptr %1, i64 16
  %54 = load ptr, ptr %53, align 8, !tbaa !70
  %55 = getelementptr inbounds nuw i8, ptr %1, i64 24
  %56 = load i32, ptr %55, align 8, !tbaa !69
  %57 = call i32 @sqlite3_bind_blob(ptr noundef %52, i32 noundef 4, ptr noundef %54, i32 noundef %56, ptr noundef nonnull inttoptr (i64 -1 to ptr)) #19
  %.not16 = icmp eq i32 %57, 0
  br i1 %.not16, label %64, label %58

58:                                               ; preds = %51
  %59 = load ptr, ptr @stderr, align 8, !tbaa !61
  %60 = load ptr, ptr getelementptr inbounds nuw (i8, ptr @darktable, i64 136), align 8, !tbaa !60
  %61 = call ptr @dt_database_get(ptr noundef %60) #19
  %62 = call ptr @sqlite3_errmsg(ptr noundef %61) #19
  %63 = call i32 (ptr, ptr, ...) @fprintf(ptr noundef %59, ptr noundef nonnull @.str.6, ptr noundef nonnull @.str.3, i32 noundef 203, ptr noundef nonnull @__FUNCTION__.menuitem_new_preset, ptr noundef %62) #20
  br label %64

64:                                               ; preds = %58, %51
  %65 = load ptr, ptr %3, align 8, !tbaa !63
  %66 = call i32 @sqlite3_step(ptr noundef %65) #19
  %67 = load ptr, ptr %3, align 8, !tbaa !63
  %68 = call i32 @sqlite3_finalize(ptr noundef %67) #19
  %69 = getelementptr inbounds nuw i8, ptr %1, i64 32
  %70 = load ptr, ptr %69, align 8, !tbaa !104
  %71 = call ptr @dcgettext(ptr noundef null, ptr noundef nonnull @.str.73, i32 noundef 5) #19
  call void @dt_action_define_preset(ptr noundef %70, ptr noundef %71) #19
  %72 = call ptr @dcgettext(ptr noundef null, ptr noundef nonnull @.str.73, i32 noundef 5) #19
  call fastcc void @edit_preset(ptr noundef %72, ptr noundef nonnull %1)
  call void @llvm.lifetime.end.p0(i64 8, ptr nonnull %3) #19
  ret void
}